target datalayout = "e-m:e-p270:32:32-p271:32:32-p272:64:64-i64:64-i128:128-f80:128-n8:16:32:64-S128"
target triple = "x86_64-pc-linux-gnu"

%union.pthread_mutex_t = type { %struct.__pthread_mutex_s }
%struct.__pthread_mutex_s = type { i32, i32, i32, i32, i32, i16, i16, %struct.__pthread_internal_list }
%struct.__pthread_internal_list = type { ptr, ptr }
%struct.job_node = type { i64, ptr }

@save_state_file = dso_local global ptr @.str, align 8
@log_url = dso_local global ptr null, align 8
@jobslist = internal global ptr null, align 8
@.str.5 = private unnamed_addr constant [29 x i8] c"%s: pthread_mutex_lock(): %m\00", align 1
@.str.7 = private unnamed_addr constant [31 x i8] c"%s: pthread_mutex_unlock(): %m\00", align 1
@thread_shutdown = internal global i8 0, align 1
@job_handler_thread = internal global i64 0, align 8
@.str.16 = private unnamed_addr constant [23 x i8] c"%s: pthread_join(): %m\00", align 1
@__func__.fini = private unnamed_addr constant [5 x i8] c"fini\00", align 1
@save_lock = internal global %union.pthread_mutex_t zeroinitializer, align 8
@_save_state.high_buffer_size = internal global i32 1048576, align 4
@__func__._save_state = private unnamed_addr constant [12 x i8] c"_save_state\00", align 1

; Function Attrs: nounwind uwtable
define internal i32 @_save_state() #0 {
  %1 = alloca i32, align 4
  %2 = alloca ptr, align 8
  %3 = alloca ptr, align 8
  %4 = alloca i32, align 4
  %5 = alloca ptr, align 8
  %6 = alloca i32, align 4
  %7 = alloca i32, align 4
  %8 = alloca i32, align 4
  call void @llvm.lifetime.start.p0(i64 4, ptr %1) #8
  store i32 0, ptr %1, align 4
  call void @llvm.lifetime.start.p0(i64 8, ptr %2) #8
  call void @llvm.lifetime.start.p0(i64 8, ptr %3) #8
  %9 = load i32, ptr @_save_state.high_buffer_size, align 4
  %10 = call ptr @slurm_init_buf(i32 noundef %9)
  store ptr %10, ptr %3, align 8
  call void @llvm.lifetime.start.p0(i64 4, ptr %4) #8
  call void @llvm.lifetime.start.p0(i64 8, ptr %5) #8
  %11 = load ptr, ptr @jobslist, align 8
  %12 = call i32 @slurm_list_count(ptr noundef %11)
  store i32 %12, ptr %4, align 4
  %13 = load i32, ptr %4, align 4
  %14 = load ptr, ptr %3, align 8
  call void @slurm_pack32(i32 noundef %13, ptr noundef %14)
  %15 = load ptr, ptr @jobslist, align 8
  %16 = call ptr @slurm_list_iterator_create(ptr noundef %15)
  store ptr %16, ptr %2, align 8
  br label %17

17:                                               ; preds = %41, %0
  %18 = load ptr, ptr %2, align 8
  %19 = call ptr @slurm_list_next(ptr noundef %18)
  store ptr %19, ptr %5, align 8
  %20 = icmp ne ptr %19, null
  br i1 %20, label %21, label %42

21:                                               ; preds = %17
  br label %22

22:                                               ; preds = %21
  call void @llvm.lifetime.start.p0(i64 4, ptr %6) #8
  store i32 0, ptr %6, align 4
  %23 = load ptr, ptr %5, align 8
  %24 = getelementptr inbounds nuw %struct.job_node, ptr %23, i32 0, i32 1
  %25 = load ptr, ptr %24, align 8
  %26 = icmp ne ptr %25, null
  br i1 %26, label %27, label %34

27:                                               ; preds = %22
  %28 = load ptr, ptr %5, align 8
  %29 = getelementptr inbounds nuw %struct.job_node, ptr %28, i32 0, i32 1
  %30 = load ptr, ptr %29, align 8
  %31 = call i64 @strlen(ptr noundef %30) #11
  %32 = trunc i64 %31 to i32
  %33 = add i32 %32, 1
  store i32 %33, ptr %6, align 4
  br label %34

34:                                               ; preds = %27, %22
  %35 = load ptr, ptr %5, align 8
  %36 = getelementptr inbounds nuw %struct.job_node, ptr %35, i32 0, i32 1
  %37 = load ptr, ptr %36, align 8
  %38 = load i32, ptr %6, align 4
  %39 = load ptr, ptr %3, align 8
  call void @slurm_packmem(ptr noundef %37, i32 noundef %38, ptr noundef %39)
  call void @llvm.lifetime.end.p0(i64 4, ptr %6) #8
  br label %40

40:                                               ; preds = %34
  br label %41

41:                                               ; preds = %40
  br label %17, !llvm.loop !15

42:                                               ; preds = %17
  %43 = load ptr, ptr %2, align 8
  call void @slurm_list_iterator_destroy(ptr noundef %43)
  br label %44

44:                                               ; preds = %42
  call void @llvm.lifetime.start.p0(i64 4, ptr %7) #8
  %45 = call i32 @pthread_mutex_lock(ptr noundef @save_lock) #8
  store i32 %45, ptr %7, align 4
  %46 = load i32, ptr %7, align 4
  %47 = icmp ne i32 %46, 0
  br i1 %47, label %48, label %51

48:                                               ; preds = %44
  %49 = load i32, ptr %7, align 4
  %50 = call ptr @__errno_location() #9
  store i32 %49, ptr %50, align 4
  call void (ptr, ...) @slurm_fatal_abort(ptr noundef @.str.5, ptr noundef @__func__._save_state) #10
  unreachable

51:                                               ; preds = %44
  call void @llvm.lifetime.end.p0(i64 4, ptr %7) #8
  br label %52

52:                                               ; preds = %51
  br label %53

53:                                               ; preds = %52
  %54 = load ptr, ptr @save_state_file, align 8
  %55 = load ptr, ptr %3, align 8
  %56 = call i32 @slurm_save_buf_to_state(ptr noundef %54, ptr noundef %55, ptr noundef null)
  store i32 %56, ptr %1, align 4
  br label %57

57:                                               ; preds = %53
  call void @llvm.lifetime.start.p0(i64 4, ptr %8) #8
  %58 = call i32 @pthread_mutex_unlock(ptr noundef @save_lock) #8
  store i32 %58, ptr %8, align 4
  %59 = load i32, ptr %8, align 4
  %60 = icmp ne i32 %59, 0
  br i1 %60, label %61, label %64

61:                                               ; preds = %57
  %62 = load i32, ptr %8, align 4
  %63 = call ptr @__errno_location() #9
  store i32 %62, ptr %63, align 4
  call void (ptr, ...) @slurm_fatal_abort(ptr noundef @.str.7, ptr noundef @__func__._save_state) #10
  unreachable

64:                                               ; preds = %57
  call void @llvm.lifetime.end.p0(i64 4, ptr %8) #8
  br label %65

65:                                               ; preds = %64
  br label %66

66:                                               ; preds = %65
  br label %67

67:                                               ; preds = %66
  %68 = load ptr, ptr %3, align 8
  %69 = icmp ne ptr %68, null
  br i1 %69, label %70, label %72

70:                                               ; preds = %67
  %71 = load ptr, ptr %3, align 8
  call void @slurm_free_buf(ptr noundef %71)
  br label %72

72:                                               ; preds = %70, %67
  store ptr null, ptr %3, align 8
  br label %73

73:                                               ; preds = %72
  br label %74

74:                                               ; preds = %73
  %75 = load i32, ptr %1, align 4
  call void @llvm.lifetime.end.p0(i64 8, ptr %5) #8
  call void @llvm.lifetime.end.p0(i64 4, ptr %4) #8
  call void @llvm.lifetime.end.p0(i64 8, ptr %3) #8
  call void @llvm.lifetime.end.p0(i64 8, ptr %2) #8
  call void @llvm.lifetime.end.p0(i64 4, ptr %1) #8
  ret i32 %75
}

; Function Attrs: nounwind uwtable
define dso_local i32 @fini() #0 {
  %1 = alloca i32, align 4
  store i8 1, ptr @thread_shutdown, align 1
  br label %2

2:                                                ; preds = %0
  call void @llvm.lifetime.start.p0(i64 4, ptr %1) #8
  store i32 0, ptr %1, align 4
  %3 = load i64, ptr @job_handler_thread, align 8
  %4 = icmp ne i64 %3, 0
  br i1 %4, label %5, label %8

5:                                                ; preds = %2
  %6 = load i64, ptr @job_handler_thread, align 8
  %7 = call i32 @pthread_join(i64 noundef %6, ptr noundef null)
  store i32 %7, ptr %1, align 4
  store i64 0, ptr @job_handler_thread, align 8
  br label %8

8:                                                ; preds = %5, %2
  %9 = load i32, ptr %1, align 4
  %10 = icmp ne i32 %9, 0
  br i1 %10, label %11, label %15

11:                                               ; preds = %8
  %12 = load i32, ptr %1, align 4
  %13 = call ptr @__errno_location() #9
  store i32 %12, ptr %13, align 4
  %14 = call i32 (ptr, ...) @slurm_error(ptr noundef @.str.16, ptr noundef @__func__.fini)
  br label %15

15:                                               ; preds = %11, %8
  call void @llvm.lifetime.end.p0(i64 4, ptr %1) #8
  br label %16

16:                                               ; preds = %15
  %17 = call i32 @_save_state()
  br label %18

18:                                               ; preds = %16
  %19 = load ptr, ptr @jobslist, align 8
  %20 = icmp ne ptr %19, null
  br i1 %20, label %21, label %23

21:                                               ; preds = %18
  %22 = load ptr, ptr @jobslist, align 8
  call void @slurm_list_destroy(ptr noundef %22)
  br label %23

23:                                               ; preds = %21, %18
  store ptr null, ptr @jobslist, align 8
  br label %24

24:                                               ; preds = %23
  call void @slurm_xfree(ptr noundef @log_url)
  %25 = call i32 @slurm_curl_fini()
  ret i32 0
}