; Function Attrs: nounwind uwtable
define dso_local noundef i32 @fini() local_unnamed_addr #0 {
  store i1 true, ptr @thread_shutdown, align 1
  %1 = load i64, ptr @job_handler_thread, align 8
  %.not = icmp eq i64 %1, 0
  br i1 %.not, label %.thread, label %2

2:                                                ; preds = %0
  %3 = tail call i32 @pthread_join(i64 noundef %1, ptr noundef null) #7
  store i64 0, ptr @job_handler_thread, align 8
  %.not4 = icmp eq i32 %3, 0
  br i1 %.not4, label %.thread, label %4

4:                                                ; preds = %2
  %5 = tail call ptr @__errno_location() #8
  store i32 %3, ptr %5, align 4
  %6 = tail call i32 (ptr, ...) @slurm_error(ptr noundef nonnull @.str.16, ptr noundef nonnull @__func__.fini) #7
  br label %.thread

.thread:                                          ; preds = %0, %4, %2
  %7 = tail call ptr @slurm_init_buf(i32 noundef 1048576) #7
  %8 = load ptr, ptr @jobslist, align 8
  %9 = tail call i32 @slurm_list_count(ptr noundef %8) #7
  tail call void @slurm_pack32(i32 noundef %9, ptr noundef %7) #7
  %10 = load ptr, ptr @jobslist, align 8
  %11 = tail call ptr @slurm_list_iterator_create(ptr noundef %10) #7
  %12 = tail call ptr @slurm_list_next(ptr noundef %11) #7
  %.not25.i = icmp eq ptr %12, null
  br i1 %.not25.i, label %._crit_edge.i, label %.lr.ph.i

.lr.ph.i:                                         ; preds = %.thread, %20
  %13 = phi ptr [ %21, %20 ], [ %12, %.thread ]
  %14 = getelementptr inbounds nuw i8, ptr %13, i64 8
  %15 = load ptr, ptr %14, align 8
  %.not24.i = icmp eq ptr %15, null
  br i1 %.not24.i, label %20, label %16

16:                                               ; preds = %.lr.ph.i
  %17 = tail call i64 @strlen(ptr noundef nonnull dereferenceable(1) %15) #10
  %18 = trunc i64 %17 to i32
  %19 = add i32 %18, 1
  br label %20

20:                                               ; preds = %16, %.lr.ph.i
  %.0.i = phi i32 [ %19, %16 ], [ 0, %.lr.ph.i ]
  tail call void @slurm_packmem(ptr noundef %15, i32 noundef %.0.i, ptr noundef %7) #7
  %21 = tail call ptr @slurm_list_next(ptr noundef %11) #7
  %.not.i = icmp eq ptr %21, null
  br i1 %.not.i, label %._crit_edge.i, label %.lr.ph.i, !llvm.loop !13

._crit_edge.i:                                    ; preds = %20, %.thread
  tail call void @slurm_list_iterator_destroy(ptr noundef %11) #7
  %22 = tail call i32 @pthread_mutex_lock(ptr noundef nonnull @save_lock) #7
  %.not21.i = icmp eq i32 %22, 0
  br i1 %.not21.i, label %25, label %23

23:                                               ; preds = %._crit_edge.i
  %24 = tail call ptr @__errno_location() #8
  store i32 %22, ptr %24, align 4
  tail call void (ptr, ...) @slurm_fatal_abort(ptr noundef nonnull @.str.5, ptr noundef nonnull @__func__._save_state) #9
  unreachable

25:                                               ; preds = %._crit_edge.i
  %26 = load ptr, ptr @save_state_file, align 8
  %27 = tail call i32 @slurm_save_buf_to_state(ptr noundef %26, ptr noundef %7, ptr noundef null) #7
  %28 = tail call i32 @pthread_mutex_unlock(ptr noundef nonnull @save_lock) #7
  %.not22.i = icmp eq i32 %28, 0
  br i1 %.not22.i, label %31, label %29

29:                                               ; preds = %25
  %30 = tail call ptr @__errno_location() #8
  store i32 %28, ptr %30, align 4
  tail call void (ptr, ...) @slurm_fatal_abort(ptr noundef nonnull @.str.7, ptr noundef nonnull @__func__._save_state) #9
  unreachable

31:                                               ; preds = %25
  %.not23.i = icmp eq ptr %7, null
  br i1 %.not23.i, label %_save_state.exit, label %32

32:                                               ; preds = %31
  tail call void @slurm_free_buf(ptr noundef nonnull %7) #7
  br label %_save_state.exit

_save_state.exit:                                 ; preds = %31, %32
  %33 = load ptr, ptr @jobslist, align 8
  %.not5 = icmp eq ptr %33, null
  br i1 %.not5, label %35, label %34

34:                                               ; preds = %_save_state.exit
  tail call void @slurm_list_destroy(ptr noundef nonnull %33) #7
  br label %35

35:                                               ; preds = %34, %_save_state.exit
  store ptr null, ptr @jobslist, align 8
  tail call void @slurm_xfree(ptr noundef nonnull @log_url) #7
  %36 = tail call i32 @slurm_curl_fini() #7
  ret i32 0
}